target datalayout = "e-m:e-p270:32:32-p271:32:32-p272:64:64-i64:64-i128:128-f80:128-n8:16:32:64-S128"
target triple = "x86_64-pc-linux-gnu"

%"class.gmx::BasicVector" = type { [3 x i32] }
%struct.gmx_domdec_t = type { i32, ptr, %"class.gmx::BasicVector", i32, %"class.gmx::BasicVector", i32, i32, i8, ptr, i32, [8 x ptr], %struct.UnitCellInfo, %"class.gmx::BasicVector", i32, %"class.gmx::BasicVector", [3 x [2 x i32]], %"class.gmx::DomdecZones", %"class.std::unique_ptr", %"class.std::unique_ptr.7", i8, %"class.std::unique_ptr.15", %"class.std::unique_ptr.23", %"class.std::vector", %"class.std::unique_ptr.31", %"class.std::unique_ptr.23", i32, %"class.std::vector.39", %"class.std::unique_ptr.41", %"class.std::unique_ptr.49", %"class.gmx::BasicVector", %"class.std::unique_ptr.57", i64, ptr, %"class.std::unique_ptr.65", %"class.std::vector.73", [3 x %"class.std::vector.75"] }
%struct.UnitCellInfo = type <{ i32, i32, i8, i8, [2 x i8] }>
%"class.gmx::DomdecZones" = type { i32, i32, %"struct.std::array", %"struct.std::array.0", %"struct.std::array.1", %"struct.std::array.2", %"struct.std::array.3", i32 }
%"struct.std::array" = type { [4 x %"class.gmx::Range"] }
%"class.gmx::Range" = type { i32, i32 }
%"struct.std::array.0" = type { [8 x %"class.gmx::BasicVector"] }
%"struct.std::array.1" = type { [9 x i32] }
%"struct.std::array.2" = type { [8 x i32] }
%"struct.std::array.3" = type { [8 x %"struct.gmx::gmx_domdec_zone_size_t"] }
%"struct.gmx::gmx_domdec_zone_size_t" = type { %"class.gmx::BasicVector.4", %"class.gmx::BasicVector.4", %"class.gmx::BasicVector.4", %"class.gmx::BasicVector.4" }
%"class.gmx::BasicVector.4" = type { [3 x float] }
%"class.std::unique_ptr" = type { %"struct.std::__uniq_ptr_data" }
%"struct.std::__uniq_ptr_data" = type { %"class.std::__uniq_ptr_impl" }
%"class.std::__uniq_ptr_impl" = type { %"class.std::tuple" }
%"class.std::tuple" = type { %"struct.std::_Tuple_impl" }
%"struct.std::_Tuple_impl" = type { %"struct.std::_Head_base.6" }
%"struct.std::_Head_base.6" = type { ptr }
%"class.std::unique_ptr.7" = type { %"struct.std::__uniq_ptr_data.8" }
%"struct.std::__uniq_ptr_data.8" = type { %"class.std::__uniq_ptr_impl.9" }
%"class.std::__uniq_ptr_impl.9" = type { %"class.std::tuple.10" }
%"class.std::tuple.10" = type { %"struct.std::_Tuple_impl.11" }
%"struct.std::_Tuple_impl.11" = type { %"struct.std::_Head_base.14" }
%"struct.std::_Head_base.14" = type { ptr }
%"class.std::unique_ptr.15" = type { %"struct.std::__uniq_ptr_data.16" }
%"struct.std::__uniq_ptr_data.16" = type { %"class.std::__uniq_ptr_impl.17" }
%"class.std::__uniq_ptr_impl.17" = type { %"class.std::tuple.18" }
%"class.std::tuple.18" = type { %"struct.std::_Tuple_impl.19" }
%"struct.std::_Tuple_impl.19" = type { %"struct.std::_Head_base.22" }
%"struct.std::_Head_base.22" = type { ptr }
%"class.std::vector" = type { %"struct.std::_Vector_base" }
%"struct.std::_Vector_base" = type { %"struct.std::_Vector_base<int, std::allocator<int>>::_Vector_impl" }
%"struct.std::_Vector_base<int, std::allocator<int>>::_Vector_impl" = type { %"struct.std::_Vector_base<int, std::allocator<int>>::_Vector_impl_data" }
%"struct.std::_Vector_base<int, std::allocator<int>>::_Vector_impl_data" = type { ptr, ptr, ptr }
%"class.std::unique_ptr.31" = type { %"struct.std::__uniq_ptr_data.32" }
%"struct.std::__uniq_ptr_data.32" = type { %"class.std::__uniq_ptr_impl.33" }
%"class.std::__uniq_ptr_impl.33" = type { %"class.std::tuple.34" }
%"class.std::tuple.34" = type { %"struct.std::_Tuple_impl.35" }
%"struct.std::_Tuple_impl.35" = type { %"struct.std::_Head_base.38" }
%"struct.std::_Head_base.38" = type { ptr }
%"class.std::unique_ptr.23" = type { %"struct.std::__uniq_ptr_data.24" }
%"struct.std::__uniq_ptr_data.24" = type { %"class.std::__uniq_ptr_impl.25" }
%"class.std::__uniq_ptr_impl.25" = type { %"class.std::tuple.26" }
%"class.std::tuple.26" = type { %"struct.std::_Tuple_impl.27" }
%"struct.std::_Tuple_impl.27" = type { %"struct.std::_Head_base.30" }
%"struct.std::_Head_base.30" = type { ptr }
%"class.std::vector.39" = type { %"struct.std::_Vector_base.40" }
%"struct.std::_Vector_base.40" = type { %"struct.std::_Vector_base<int, gmx::DefaultInitializationAllocator<int>>::_Vector_impl" }
%"struct.std::_Vector_base<int, gmx::DefaultInitializationAllocator<int>>::_Vector_impl" = type { %"struct.std::_Vector_base<int, gmx::DefaultInitializationAllocator<int>>::_Vector_impl_data" }
%"struct.std::_Vector_base<int, gmx::DefaultInitializationAllocator<int>>::_Vector_impl_data" = type { ptr, ptr, ptr }
%"class.std::unique_ptr.41" = type { %"struct.std::__uniq_ptr_data.42" }
%"struct.std::__uniq_ptr_data.42" = type { %"class.std::__uniq_ptr_impl.43" }
%"class.std::__uniq_ptr_impl.43" = type { %"class.std::tuple.44" }
%"class.std::tuple.44" = type { %"struct.std::_Tuple_impl.45" }
%"struct.std::_Tuple_impl.45" = type { %"struct.std::_Head_base.48" }
%"struct.std::_Head_base.48" = type { ptr }
%"class.std::unique_ptr.49" = type { %"struct.std::__uniq_ptr_data.50" }
%"struct.std::__uniq_ptr_data.50" = type { %"class.std::__uniq_ptr_impl.51" }
%"class.std::__uniq_ptr_impl.51" = type { %"class.std::tuple.52" }
%"class.std::tuple.52" = type { %"struct.std::_Tuple_impl.53" }
%"struct.std::_Tuple_impl.53" = type { %"struct.std::_Head_base.56" }
%"struct.std::_Head_base.56" = type { ptr }
%"class.std::unique_ptr.57" = type { %"struct.std::__uniq_ptr_data.58" }
%"struct.std::__uniq_ptr_data.58" = type { %"class.std::__uniq_ptr_impl.59" }
%"class.std::__uniq_ptr_impl.59" = type { %"class.std::tuple.60" }
%"class.std::tuple.60" = type { %"struct.std::_Tuple_impl.61" }
%"struct.std::_Tuple_impl.61" = type { %"struct.std::_Head_base.64" }
%"struct.std::_Head_base.64" = type { ptr }
%"class.std::unique_ptr.65" = type { %"struct.std::__uniq_ptr_data.66" }
%"struct.std::__uniq_ptr_data.66" = type { %"class.std::__uniq_ptr_impl.67" }
%"class.std::__uniq_ptr_impl.67" = type { %"class.std::tuple.68" }
%"class.std::tuple.68" = type { %"struct.std::_Tuple_impl.69" }
%"struct.std::_Tuple_impl.69" = type { %"struct.std::_Head_base.72" }
%"struct.std::_Head_base.72" = type { ptr }
%"class.std::vector.73" = type { %"struct.std::_Vector_base.74" }
%"struct.std::_Vector_base.74" = type { %"struct.std::_Vector_base<gmx::BasicVector<float>, gmx::Allocator<gmx::BasicVector<float>, gmx::HostAllocationPolicy>>::_Vector_impl" }
%"struct.std::_Vector_base<gmx::BasicVector<float>, gmx::Allocator<gmx::BasicVector<float>, gmx::HostAllocationPolicy>>::_Vector_impl" = type { %"class.gmx::Allocator.base", %"struct.std::_Vector_base<gmx::BasicVector<float>, gmx::Allocator<gmx::BasicVector<float>, gmx::HostAllocationPolicy>>::_Vector_impl_data" }
%"class.gmx::Allocator.base" = type { %"class.gmx::HostAllocationPolicy.base" }
%"class.gmx::HostAllocationPolicy.base" = type <{ i32, i8 }>
%"struct.std::_Vector_base<gmx::BasicVector<float>, gmx::Allocator<gmx::BasicVector<float>, gmx::HostAllocationPolicy>>::_Vector_impl_data" = type { ptr, ptr, ptr }
%"class.std::vector.75" = type { %"struct.std::_Vector_base.76" }
%"struct.std::_Vector_base.76" = type { %"struct.std::_Vector_base<std::unique_ptr<gmx::GpuHaloExchange>, std::allocator<std::unique_ptr<gmx::GpuHaloExchange>>>::_Vector_impl" }
%"struct.std::_Vector_base<std::unique_ptr<gmx::GpuHaloExchange>, std::allocator<std::unique_ptr<gmx::GpuHaloExchange>>>::_Vector_impl" = type { %"struct.std::_Vector_base<std::unique_ptr<gmx::GpuHaloExchange>, std::allocator<std::unique_ptr<gmx::GpuHaloExchange>>>::_Vector_impl_data" }
%"struct.std::_Vector_base<std::unique_ptr<gmx::GpuHaloExchange>, std::allocator<std::unique_ptr<gmx::GpuHaloExchange>>>::_Vector_impl_data" = type { ptr, ptr, ptr }
%struct.gmx_domdec_comm_t = type { %struct.DDSettings, %struct.DDRankSetup, %struct.CartesianRankSetup, %"class.std::unique_ptr.85", %"class.std::unique_ptr.93", %"class.std::unique_ptr.101", i32, i8, i32, %"class.gmx::FixedCapacityVector", %"struct.std::array.110", %struct.DDSystemInfo, float, %"class.gmx::BasicVector.4", %"class.gmx::BasicVector.4", float, i8, i8, float, %"class.gmx::BasicVector.4", %"class.gmx::BasicVector.4", %"class.gmx::BasicVector.4", %"class.gmx::BasicVector.4", %"class.gmx::BasicVector.4", %"class.gmx::BasicVector.4", %"struct.std::array.111", [2 x [2 x %struct.gmx_ddzone_t]], %"struct.std::array.112", i32, i64, i8, %class.DDAtomRanges, i32, %"class.std::vector", %class.DDBuffer, %class.DDBuffer.119, %"class.std::vector.127", %class.DDBuffer.119, %"struct.std::array.132", %"struct.std::array.133", %"class.std::vector.136", %"class.std::vector.141", i32, %"class.std::vector.146", ptr, %class.BalanceRegion, ptr, %"struct.std::array.159", %"struct.std::array.160", %"struct.std::array.159", double, i32, i32, i32, float, float, i8, i64, [4 x double], i32, i32, double, double, double, %"class.gmx::BasicVector", double, double, i64 }
%struct.DDSettings = type { i8, i32, i32, i8, i8, i8, i32, i32, i32, i32 }
%struct.DDRankSetup = type { i32, i32, [3 x i32], i8, i32, i32, i32, i32, [2 x %struct.gmx_ddpme] }
%struct.gmx_ddpme = type <{ i32, i8, [3 x i8], i32, [4 x i8], %"class.std::vector.80", %"class.std::vector", %"class.std::vector", i32, [4 x i8] }>
%"class.std::vector.80" = type { %"struct.std::_Vector_base.81" }
%"struct.std::_Vector_base.81" = type { %"struct.std::_Vector_base<float, std::allocator<float>>::_Vector_impl" }
%"struct.std::_Vector_base<float, std::allocator<float>>::_Vector_impl" = type { %"struct.std::_Vector_base<float, std::allocator<float>>::_Vector_impl_data" }
%"struct.std::_Vector_base<float, std::allocator<float>>::_Vector_impl_data" = type { ptr, ptr, ptr }
%struct.CartesianRankSetup = type { i8, [3 x i32], i32, %"class.std::vector", i8, %"class.std::vector" }
%"class.std::unique_ptr.85" = type { %"struct.std::__uniq_ptr_data.86" }
%"struct.std::__uniq_ptr_data.86" = type { %"class.std::__uniq_ptr_impl.87" }
%"class.std::__uniq_ptr_impl.87" = type { %"class.std::tuple.88" }
%"class.std::tuple.88" = type { %"struct.std::_Tuple_impl.89" }
%"struct.std::_Tuple_impl.89" = type { %"struct.std::_Head_base.92" }
%"struct.std::_Head_base.92" = type { ptr }
%"class.std::unique_ptr.93" = type { %"struct.std::__uniq_ptr_data.94" }
%"struct.std::__uniq_ptr_data.94" = type { %"class.std::__uniq_ptr_impl.95" }
%"class.std::__uniq_ptr_impl.95" = type { %"class.std::tuple.96" }
%"class.std::tuple.96" = type { %"struct.std::_Tuple_impl.97" }
%"struct.std::_Tuple_impl.97" = type { %"struct.std::_Head_base.100" }
%"struct.std::_Head_base.100" = type { ptr }
%"class.std::unique_ptr.101" = type { %"struct.std::__uniq_ptr_data.102" }
%"struct.std::__uniq_ptr_data.102" = type { %"class.std::__uniq_ptr_impl.103" }
%"class.std::__uniq_ptr_impl.103" = type { %"class.std::tuple.104" }
%"class.std::tuple.104" = type { %"struct.std::_Tuple_impl.105" }
%"struct.std::_Tuple_impl.105" = type { %"struct.std::_Head_base.108" }
%"struct.std::_Head_base.108" = type { ptr }
%"class.gmx::FixedCapacityVector" = type { %"struct.std::array.109", i64 }
%"struct.std::array.109" = type { [3 x i32] }
%"struct.std::array.110" = type { [3 x %"class.std::vector.80"] }
%struct.DDSystemInfo = type <{ i8, [7 x i8], %"class.gmx::ArrayRef", float, i8, i8, i8, i8, float, float, float, i8, i8, [2 x i8], float, i8, i8, i8, i8, [3 x [3 x float]], [4 x i8] }>
%"class.gmx::ArrayRef" = type { %"struct.gmx::ArrayRefIter", %"struct.gmx::ArrayRefIter" }
%"struct.gmx::ArrayRefIter" = type { ptr }
%"struct.std::array.111" = type { [2 x %struct.gmx_ddzone_t] }
%struct.gmx_ddzone_t = type { float, float, float, float, float, float, float, float }
%"struct.std::array.112" = type { [3 x %struct.gmx_domdec_comm_dim_t] }
%struct.gmx_domdec_comm_dim_t = type <{ %"class.std::vector.113", i8, [7 x i8] }>
%"class.std::vector.113" = type { %"struct.std::_Vector_base.114" }
%"struct.std::_Vector_base.114" = type { %"struct.std::_Vector_base<gmx_domdec_ind_t, std::allocator<gmx_domdec_ind_t>>::_Vector_impl" }
%"struct.std::_Vector_base<gmx_domdec_ind_t, std::allocator<gmx_domdec_ind_t>>::_Vector_impl" = type { %"struct.std::_Vector_base<gmx_domdec_ind_t, std::allocator<gmx_domdec_ind_t>>::_Vector_impl_data" }
%"struct.std::_Vector_base<gmx_domdec_ind_t, std::allocator<gmx_domdec_ind_t>>::_Vector_impl_data" = type { ptr, ptr, ptr }
%class.DDAtomRanges = type { %"struct.std::array.118", i32 }
%"struct.std::array.118" = type { [4 x i32] }
%class.DDBuffer = type <{ %"class.std::vector.39", i8, [7 x i8] }>
%"class.std::vector.127" = type { %"struct.std::_Vector_base.128" }
%"struct.std::_Vector_base.128" = type { %"struct.std::_Vector_base<dd_comm_setup_work_t, std::allocator<dd_comm_setup_work_t>>::_Vector_impl" }
%"struct.std::_Vector_base<dd_comm_setup_work_t, std::allocator<dd_comm_setup_work_t>>::_Vector_impl" = type { %"struct.std::_Vector_base<dd_comm_setup_work_t, std::allocator<dd_comm_setup_work_t>>::_Vector_impl_data" }
%"struct.std::_Vector_base<dd_comm_setup_work_t, std::allocator<dd_comm_setup_work_t>>::_Vector_impl_data" = type { ptr, ptr, ptr }
%class.DDBuffer.119 = type <{ %"class.std::vector.120", i8, [7 x i8] }>
%"class.std::vector.120" = type { %"struct.std::_Vector_base.121" }
%"struct.std::_Vector_base.121" = type { %"struct.std::_Vector_base<gmx::BasicVector<float>, gmx::DefaultInitializationAllocator<gmx::BasicVector<float>>>::_Vector_impl" }
%"struct.std::_Vector_base<gmx::BasicVector<float>, gmx::DefaultInitializationAllocator<gmx::BasicVector<float>>>::_Vector_impl" = type { %"struct.std::_Vector_base<gmx::BasicVector<float>, gmx::DefaultInitializationAllocator<gmx::BasicVector<float>>>::_Vector_impl_data" }
%"struct.std::_Vector_base<gmx::BasicVector<float>, gmx::DefaultInitializationAllocator<gmx::BasicVector<float>>>::_Vector_impl_data" = type { ptr, ptr, ptr }
%"struct.std::array.132" = type { [6 x %"class.std::vector.39"] }
%"struct.std::array.133" = type { [6 x %"class.std::vector.134"] }
%"class.std::vector.134" = type { %"struct.std::_Vector_base.135" }
%"struct.std::_Vector_base.135" = type { %"struct.std::_Vector_base<gmx::BasicVector<float>, std::allocator<gmx::BasicVector<float>>>::_Vector_impl" }
%"struct.std::_Vector_base<gmx::BasicVector<float>, std::allocator<gmx::BasicVector<float>>>::_Vector_impl" = type { %"struct.std::_Vector_base<gmx::BasicVector<float>, std::allocator<gmx::BasicVector<float>>>::_Vector_impl_data" }
%"struct.std::_Vector_base<gmx::BasicVector<float>, std::allocator<gmx::BasicVector<float>>>::_Vector_impl_data" = type { ptr, ptr, ptr }
%"class.std::vector.136" = type { %"struct.std::_Vector_base.137" }
%"struct.std::_Vector_base.137" = type { %"struct.std::_Vector_base<DDCellsizesWithDlb, std::allocator<DDCellsizesWithDlb>>::_Vector_impl" }
%"struct.std::_Vector_base<DDCellsizesWithDlb, std::allocator<DDCellsizesWithDlb>>::_Vector_impl" = type { %"struct.std::_Vector_base<DDCellsizesWithDlb, std::allocator<DDCellsizesWithDlb>>::_Vector_impl_data" }
%"struct.std::_Vector_base<DDCellsizesWithDlb, std::allocator<DDCellsizesWithDlb>>::_Vector_impl_data" = type { ptr, ptr, ptr }
%"class.std::vector.141" = type { %"struct.std::_Vector_base.142" }
%"struct.std::_Vector_base.142" = type { %"struct.std::_Vector_base<domdec_load, std::allocator<domdec_load>>::_Vector_impl" }
%"struct.std::_Vector_base<domdec_load, std::allocator<domdec_load>>::_Vector_impl" = type { %"struct.std::_Vector_base<domdec_load, std::allocator<domdec_load>>::_Vector_impl_data" }
%"struct.std::_Vector_base<domdec_load, std::allocator<domdec_load>>::_Vector_impl_data" = type { ptr, ptr, ptr }
%"class.std::vector.146" = type { %"struct.std::_Vector_base.147" }
%"struct.std::_Vector_base.147" = type { %"struct.std::_Vector_base<tmpi_comm_ *, std::allocator<tmpi_comm_ *>>::_Vector_impl" }
%"struct.std::_Vector_base<tmpi_comm_ *, std::allocator<tmpi_comm_ *>>::_Vector_impl" = type { %"struct.std::_Vector_base<tmpi_comm_ *, std::allocator<tmpi_comm_ *>>::_Vector_impl_data" }
%"struct.std::_Vector_base<tmpi_comm_ *, std::allocator<tmpi_comm_ *>>::_Vector_impl_data" = type { ptr, ptr, ptr }
%class.BalanceRegion = type { %"class.std::unique_ptr.151" }
%"class.std::unique_ptr.151" = type { %"struct.std::__uniq_ptr_data.152" }
%"struct.std::__uniq_ptr_data.152" = type { %"class.std::__uniq_ptr_impl.153" }
%"class.std::__uniq_ptr_impl.153" = type { %"class.std::tuple.154" }
%"class.std::tuple.154" = type { %"struct.std::_Tuple_impl.155" }
%"struct.std::_Tuple_impl.155" = type { %"struct.std::_Head_base.158" }
%"struct.std::_Head_base.158" = type { ptr }
%"struct.std::array.160" = type { [5 x i32] }
%"struct.std::array.159" = type { [5 x float] }

; Function Attrs: mustprogress nounwind uwtable
define linkonce_odr noundef nonnull align 8 dereferenceable(8) ptr @_ZNSt10_Head_baseILm0EP17gmx_domdec_comm_tLb0EE7_M_headERKS2_(ptr noundef nonnull align 8 dereferenceable(8) %0) #2 comdat align 2 {
  %2 = alloca ptr, align 8
  store ptr %0, ptr %2, align 8, !tbaa !131
  %3 = load ptr, ptr %2, align 8, !tbaa !131
  %4 = getelementptr inbounds nuw %"struct.std::_Head_base.56", ptr %3, i32 0, i32 0
  ret ptr %4
}

; Function Attrs: mustprogress nounwind uwtable
define linkonce_odr noundef nonnull align 8 dereferenceable(8) ptr @_ZNSt11_Tuple_implILm0EJP17gmx_domdec_comm_tSt14default_deleteIS0_EEE7_M_headERKS4_(ptr noundef nonnull align 8 dereferenceable(8) %0) #2 comdat align 2 {
  %2 = alloca ptr, align 8
  store ptr %0, ptr %2, align 8, !tbaa !129
  %3 = load ptr, ptr %2, align 8, !tbaa !129
  %4 = call noundef nonnull align 8 dereferenceable(8) ptr @_ZNSt10_Head_baseILm0EP17gmx_domdec_comm_tLb0EE7_M_headERKS2_(ptr noundef nonnull align 8 dereferenceable(8) %3) #19
  ret ptr %4
}

; Function Attrs: mustprogress nounwind uwtable
define linkonce_odr noundef nonnull align 8 dereferenceable(8) ptr @_ZSt12__get_helperILm0EP17gmx_domdec_comm_tJSt14default_deleteIS0_EEERKT0_RKSt11_Tuple_implIXT_EJS4_DpT1_EE(ptr noundef nonnull align 8 dereferenceable(8) %0) #2 comdat {
  %2 = alloca ptr, align 8
  store ptr %0, ptr %2, align 8, !tbaa !129
  %3 = load ptr, ptr %2, align 8, !tbaa !129
  %4 = call noundef nonnull align 8 dereferenceable(8) ptr @_ZNSt11_Tuple_implILm0EJP17gmx_domdec_comm_tSt14default_deleteIS0_EEE7_M_headERKS4_(ptr noundef nonnull align 8 dereferenceable(8) %3) #19
  ret ptr %4
}

; Function Attrs: mustprogress nounwind uwtable
define linkonce_odr noundef nonnull align 8 dereferenceable(8) ptr @_ZSt3getILm0EJP17gmx_domdec_comm_tSt14default_deleteIS0_EEERKNSt13tuple_elementIXT_ESt5tupleIJDpT0_EEE4typeERKS8_(ptr noundef nonnull align 8 dereferenceable(8) %0) #2 comdat {
  %2 = alloca ptr, align 8
  store ptr %0, ptr %2, align 8, !tbaa !127
  %3 = load ptr, ptr %2, align 8, !tbaa !127
  %4 = call noundef nonnull align 8 dereferenceable(8) ptr @_ZSt12__get_helperILm0EP17gmx_domdec_comm_tJSt14default_deleteIS0_EEERKT0_RKSt11_Tuple_implIXT_EJS4_DpT1_EE(ptr noundef nonnull align 8 dereferenceable(8) %3) #19
  ret ptr %4
}

; Function Attrs: mustprogress nounwind uwtable
define linkonce_odr noundef ptr @_ZNKSt15__uniq_ptr_implI17gmx_domdec_comm_tSt14default_deleteIS0_EE6_M_ptrEv(ptr noundef nonnull align 8 dereferenceable(8) %0) #2 comdat align 2 {
  %2 = alloca ptr, align 8
  store ptr %0, ptr %2, align 8, !tbaa !124
  %3 = load ptr, ptr %2, align 8
  %4 = getelementptr inbounds nuw %"class.std::__uniq_ptr_impl.51", ptr %3, i32 0, i32 0
  %5 = call noundef nonnull align 8 dereferenceable(8) ptr @_ZSt3getILm0EJP17gmx_domdec_comm_tSt14default_deleteIS0_EEERKNSt13tuple_elementIXT_ESt5tupleIJDpT0_EEE4typeERKS8_(ptr noundef nonnull align 8 dereferenceable(8) %4) #19
  %6 = load ptr, ptr %5, align 8, !tbaa !126
  ret ptr %6
}

; Function Attrs: mustprogress nounwind uwtable
define linkonce_odr noundef ptr @_ZNKSt10unique_ptrI17gmx_domdec_comm_tSt14default_deleteIS0_EE3getEv(ptr noundef nonnull align 8 dereferenceable(8) %0) #2 comdat align 2 {
  %2 = alloca ptr, align 8
  store ptr %0, ptr %2, align 8, !tbaa !117
  %3 = load ptr, ptr %2, align 8
  %4 = getelementptr inbounds nuw %"class.std::unique_ptr.49", ptr %3, i32 0, i32 0
  %5 = call noundef ptr @_ZNKSt15__uniq_ptr_implI17gmx_domdec_comm_tSt14default_deleteIS0_EE6_M_ptrEv(ptr noundef nonnull align 8 dereferenceable(8) %4) #19
  ret ptr %5
}

; Function Attrs: mustprogress nounwind uwtable
define linkonce_odr noundef i32 @_ZNK3gmx11BasicVectorIiEixEi(ptr noundef nonnull align 4 dereferenceable(12) %0, i32 noundef %1) #2 comdat align 2 {
  %3 = alloca ptr, align 8
  %4 = alloca i32, align 4
  store ptr %0, ptr %3, align 8, !tbaa !9
  store i32 %1, ptr %4, align 4, !tbaa !11
  %5 = load ptr, ptr %3, align 8
  %6 = getelementptr inbounds nuw %"class.gmx::BasicVector", ptr %5, i32 0, i32 0
  %7 = load i32, ptr %4, align 4, !tbaa !11
  %8 = sext i32 %7 to i64
  %9 = getelementptr inbounds [3 x i32], ptr %6, i64 0, i64 %8
  %10 = load i32, ptr %9, align 4, !tbaa !11
  ret i32 %10
}

; Function Attrs: mustprogress nounwind uwtable
define linkonce_odr noundef ptr @_ZNKSt10unique_ptrI17gmx_domdec_comm_tSt14default_deleteIS0_EEptEv(ptr noundef nonnull align 8 dereferenceable(8) %0) #2 comdat align 2 {
  %2 = alloca ptr, align 8
  store ptr %0, ptr %2, align 8, !tbaa !117
  %3 = load ptr, ptr %2, align 8
  %4 = call noundef ptr @_ZNKSt10unique_ptrI17gmx_domdec_comm_tSt14default_deleteIS0_EE3getEv(ptr noundef nonnull align 8 dereferenceable(8) %3) #19
  ret ptr %4
}

; Function Attrs: mustprogress nounwind uwtable
define noundef zeroext i1 @_Z16dd_bonded_molpbcRK12gmx_domdec_t7PbcType(ptr noundef nonnull align 8 dereferenceable(1072) %0, i32 noundef %1) #2 {
  %3 = alloca ptr, align 8
  %4 = alloca i32, align 4
  store ptr %0, ptr %3, align 8, !tbaa !4
  store i32 %1, ptr %4, align 4, !tbaa !621
  %5 = load i32, ptr %4, align 4, !tbaa !621
  %6 = icmp ne i32 %5, 1
  br i1 %6, label %7, label %38

7:                                                ; preds = %2
  %8 = load ptr, ptr %3, align 8, !tbaa !4
  %9 = getelementptr inbounds nuw %struct.gmx_domdec_t, ptr %8, i32 0, i32 28
  %10 = call noundef ptr @_ZNKSt10unique_ptrI17gmx_domdec_comm_tSt14default_deleteIS0_EEptEv(ptr noundef nonnull align 8 dereferenceable(8) %9) #19
  %11 = getelementptr inbounds nuw %struct.gmx_domdec_comm_t, ptr %10, i32 0, i32 11
  %12 = getelementptr inbounds nuw %struct.DDSystemInfo, ptr %11, i32 0, i32 5
  %13 = load i8, ptr %12, align 1, !tbaa !622, !range !23, !noundef !24
  %14 = trunc i8 %13 to i1
  br i1 %14, label %15, label %38

15:                                               ; preds = %7
  %16 = load ptr, ptr %3, align 8, !tbaa !4
  %17 = getelementptr inbounds nuw %struct.gmx_domdec_t, ptr %16, i32 0, i32 12
  %18 = call noundef i32 @_ZNK3gmx11BasicVectorIiEixEi(ptr noundef nonnull align 4 dereferenceable(12) %17, i32 noundef 0)
  %19 = icmp sgt i32 %18, 1
  br i1 %19, label %20, label %35

20:                                               ; preds = %15
  %21 = load ptr, ptr %3, align 8, !tbaa !4
  %22 = getelementptr inbounds nuw %struct.gmx_domdec_t, ptr %21, i32 0, i32 12
  %23 = call noundef i32 @_ZNK3gmx11BasicVectorIiEixEi(ptr noundef nonnull align 4 dereferenceable(12) %22, i32 noundef 1)
  %24 = icmp sgt i32 %23, 1
  br i1 %24, label %25, label %35

25:                                               ; preds = %20
  %26 = load ptr, ptr %3, align 8, !tbaa !4
  %27 = getelementptr inbounds nuw %struct.gmx_domdec_t, ptr %26, i32 0, i32 12
  %28 = call noundef i32 @_ZNK3gmx11BasicVectorIiEixEi(ptr noundef nonnull align 4 dereferenceable(12) %27, i32 noundef 2)
  %29 = icmp sgt i32 %28, 1
  br i1 %29, label %33, label %30

30:                                               ; preds = %25
  %31 = load i32, ptr %4, align 4, !tbaa !621
  %32 = icmp eq i32 %31, 2
  br label %33

33:                                               ; preds = %30, %25
  %34 = phi i1 [ true, %25 ], [ %32, %30 ]
  br label %35

35:                                               ; preds = %33, %20, %15
  %36 = phi i1 [ false, %20 ], [ false, %15 ], [ %34, %33 ]
  %37 = xor i1 %36, true
  br label %38

38:                                               ; preds = %35, %7, %2
  %39 = phi i1 [ false, %7 ], [ false, %2 ], [ %37, %35 ]
  ret i1 %39
}