; Function Attrs: mustprogress nofree norecurse nosync nounwind willreturn memory(read, inaccessiblemem: none) uwtable
define noundef zeroext i1 @_Z16dd_bonded_molpbcRK12gmx_domdec_t7PbcType(ptr noundef nonnull readonly align 8 captures(none) dereferenceable(1072) %0, i32 noundef %1) local_unnamed_addr #13 {
  %.not = icmp eq i32 %1, 1
  br i1 %.not, label %21, label %3

3:                                                ; preds = %2
  %4 = getelementptr inbounds nuw i8, ptr %0, i64 912
  %5 = load ptr, ptr %4, align 8, !tbaa !8
  %6 = getelementptr inbounds nuw i8, ptr %5, i64 509
  %7 = load i8, ptr %6, align 1, !tbaa !440, !range !19, !noundef !20
  %8 = trunc nuw i8 %7 to i1
  br i1 %8, label %9, label %21

9:                                                ; preds = %3
  %10 = getelementptr inbounds nuw i8, ptr %0, i64 148
  %11 = load i32, ptr %10, align 4, !tbaa !4
  %12 = icmp sgt i32 %11, 1
  %13 = getelementptr inbounds nuw i8, ptr %0, i64 152
  %14 = load i32, ptr %13, align 8
  %15 = icmp sgt i32 %14, 1
  %or.cond = select i1 %12, i1 %15, i1 false
  br i1 %or.cond, label %16, label %21

16:                                               ; preds = %9
  %17 = getelementptr inbounds nuw i8, ptr %0, i64 156
  %18 = load i32, ptr %17, align 4, !tbaa !4
  %19 = icmp slt i32 %18, 2
  %20 = icmp ne i32 %1, 2
  %.not7 = and i1 %20, %19
  br label %21

21:                                               ; preds = %9, %16, %3, %2
  %22 = phi i1 [ false, %3 ], [ false, %2 ], [ true, %9 ], [ %.not7, %16 ]
  ret i1 %22
}